target datalayout = "e-m:e-p270:32:32-p271:32:32-p272:64:64-i64:64-i128:128-f80:128-n8:16:32:64-S128"
target triple = "x86_64-pc-linux-gnu"

%struct.php_file_globals = type { i32, i64, i8, i64, ptr, ptr, ptr, ptr, ptr, ptr, ptr, i32, %struct.hostent, ptr, i64 }
%struct.hostent = type { ptr, ptr, i32, i32, ptr }
%struct._zval_struct = type { %union._zend_value, %union.anon.3, %union.anon.6 }
%union._zend_value = type { i64 }
%union.anon.3 = type { i32 }
%union.anon.6 = type { i32 }
%struct._php_stream = type { ptr, ptr, %struct._php_stream_filter_chain, %struct._php_stream_filter_chain, ptr, ptr, %struct._zval_struct, i16, [16 x i8], i32, ptr, ptr, ptr, ptr, i64, ptr, i64, i64, i64, i64, ptr }
%struct._php_stream_filter_chain = type { ptr, ptr, ptr }

@le_stream = internal global i32 -1, align 4
@le_pstream = internal global i32 -1, align 4
@file_globals = external global %struct.php_file_globals, align 8

; Function Attrs: nounwind uwtable
define ptr @_php_stream_alloc(ptr noundef %0, ptr noundef %1, ptr noundef %2, ptr noundef %3) #0 {
  %5 = alloca ptr, align 8
  %6 = alloca ptr, align 8
  %7 = alloca ptr, align 8
  %8 = alloca ptr, align 8
  %9 = alloca ptr, align 8
  %10 = alloca ptr, align 8
  store ptr %0, ptr %6, align 8
  store ptr %1, ptr %7, align 8
  store ptr %2, ptr %8, align 8
  store ptr %3, ptr %9, align 8
  %11 = load ptr, ptr %8, align 8
  %12 = icmp ne ptr %11, null
  br i1 %12, label %13, label %14

13:                                               ; preds = %4
  br i1 true, label %15, label %17

14:                                               ; preds = %4
  br i1 false, label %15, label %17

15:                                               ; preds = %14, %13
  %16 = call noalias ptr @__zend_malloc(i64 noundef 208) #16
  br label %19

17:                                               ; preds = %14, %13
  %18 = call noalias ptr @_emalloc_224()
  br label %19

19:                                               ; preds = %17, %15
  %20 = phi ptr [ %16, %15 ], [ %18, %17 ]
  store ptr %20, ptr %10, align 8
  %21 = load ptr, ptr %10, align 8
  call void @llvm.memset.p0.i64(ptr align 8 %21, i8 0, i64 208, i1 false)
  %22 = load ptr, ptr %10, align 8
  %23 = load ptr, ptr %10, align 8
  %24 = getelementptr inbounds %struct._php_stream, ptr %23, i32 0, i32 2
  %25 = getelementptr inbounds %struct._php_stream_filter_chain, ptr %24, i32 0, i32 2
  store ptr %22, ptr %25, align 8
  %26 = load ptr, ptr %10, align 8
  %27 = load ptr, ptr %10, align 8
  %28 = getelementptr inbounds %struct._php_stream, ptr %27, i32 0, i32 3
  %29 = getelementptr inbounds %struct._php_stream_filter_chain, ptr %28, i32 0, i32 2
  store ptr %26, ptr %29, align 8
  %30 = load ptr, ptr %6, align 8
  %31 = load ptr, ptr %10, align 8
  %32 = getelementptr inbounds %struct._php_stream, ptr %31, i32 0, i32 0
  store ptr %30, ptr %32, align 8
  %33 = load ptr, ptr %7, align 8
  %34 = load ptr, ptr %10, align 8
  %35 = getelementptr inbounds %struct._php_stream, ptr %34, i32 0, i32 1
  store ptr %33, ptr %35, align 8
  %36 = load ptr, ptr %8, align 8
  %37 = icmp ne ptr %36, null
  %38 = select i1 %37, i32 1, i32 0
  %39 = trunc i32 %38 to i16
  %40 = load ptr, ptr %10, align 8
  %41 = getelementptr inbounds %struct._php_stream, ptr %40, i32 0, i32 7
  %42 = load i16, ptr %41, align 8
  %43 = and i16 %39, 1
  %44 = and i16 %42, -2
  %45 = or i16 %44, %43
  store i16 %45, ptr %41, align 8
  %46 = load i64, ptr getelementptr inbounds (%struct.php_file_globals, ptr @file_globals, i32 0, i32 1), align 8
  %47 = load ptr, ptr %10, align 8
  %48 = getelementptr inbounds %struct._php_stream, ptr %47, i32 0, i32 19
  store i64 %46, ptr %48, align 8
  %49 = load i8, ptr getelementptr inbounds (%struct.php_file_globals, ptr @file_globals, i32 0, i32 2), align 8
  %50 = trunc i8 %49 to i1
  br i1 %50, label %51, label %56

51:                                               ; preds = %19
  %52 = load ptr, ptr %10, align 8
  %53 = getelementptr inbounds %struct._php_stream, ptr %52, i32 0, i32 9
  %54 = load i32, ptr %53, align 4
  %55 = or i32 %54, 4
  store i32 %55, ptr %53, align 4
  br label %56

56:                                               ; preds = %51, %19
  %57 = load ptr, ptr %8, align 8
  %58 = icmp ne ptr %57, null
  br i1 %58, label %59, label %70

59:                                               ; preds = %56
  %60 = load ptr, ptr %8, align 8
  %61 = load ptr, ptr %8, align 8
  %62 = call i64 @strlen(ptr noundef %61) #13
  %63 = load ptr, ptr %10, align 8
  %64 = load i32, ptr @le_pstream, align 4
  %65 = call ptr @zend_register_persistent_resource(ptr noundef %60, i64 noundef %62, ptr noundef %63, i32 noundef %64)
  %66 = icmp eq ptr null, %65
  br i1 %66, label %67, label %69

67:                                               ; preds = %59
  %68 = load ptr, ptr %10, align 8
  call void @free(ptr noundef %68) #14
  store ptr null, ptr %5, align 8
  br label %108

69:                                               ; preds = %59
  br label %70

70:                                               ; preds = %69, %56
  %71 = load ptr, ptr %10, align 8
  %72 = load ptr, ptr %8, align 8
  %73 = icmp ne ptr %72, null
  br i1 %73, label %74, label %76

74:                                               ; preds = %70
  %75 = load i32, ptr @le_pstream, align 4
  br label %78

76:                                               ; preds = %70
  %77 = load i32, ptr @le_stream, align 4
  br label %78

78:                                               ; preds = %76, %74
  %79 = phi i32 [ %75, %74 ], [ %77, %76 ]
  %80 = call ptr @zend_register_resource(ptr noundef %71, i32 noundef %79)
  %81 = load ptr, ptr %10, align 8
  %82 = getelementptr inbounds %struct._php_stream, ptr %81, i32 0, i32 10
  store ptr %80, ptr %82, align 8
  %83 = load ptr, ptr %10, align 8
  %84 = getelementptr inbounds %struct._php_stream, ptr %83, i32 0, i32 8
  %85 = getelementptr inbounds [16 x i8], ptr %84, i64 0, i64 0
  %86 = load ptr, ptr %9, align 8
  %87 = call i64 @php_strlcpy(ptr noundef %85, ptr noundef %86, i64 noundef 16)
  %88 = load ptr, ptr %10, align 8
  %89 = getelementptr inbounds %struct._php_stream, ptr %88, i32 0, i32 4
  store ptr null, ptr %89, align 8
  %90 = load ptr, ptr %10, align 8
  %91 = getelementptr inbounds %struct._php_stream, ptr %90, i32 0, i32 5
  store ptr null, ptr %91, align 8
  br label %92

92:                                               ; preds = %78
  %93 = load ptr, ptr %10, align 8
  %94 = getelementptr inbounds %struct._php_stream, ptr %93, i32 0, i32 6
  %95 = getelementptr inbounds %struct._zval_struct, ptr %94, i32 0, i32 1
  store i32 0, ptr %95, align 8
  br label %96

96:                                               ; preds = %92
  %97 = load ptr, ptr %10, align 8
  %98 = getelementptr inbounds %struct._php_stream, ptr %97, i32 0, i32 11
  store ptr null, ptr %98, align 8
  %99 = load ptr, ptr %10, align 8
  %100 = getelementptr inbounds %struct._php_stream, ptr %99, i32 0, i32 12
  store ptr null, ptr %100, align 8
  %101 = load ptr, ptr %10, align 8
  %102 = getelementptr inbounds %struct._php_stream, ptr %101, i32 0, i32 13
  store ptr null, ptr %102, align 8
  %103 = load ptr, ptr %10, align 8
  %104 = getelementptr inbounds %struct._php_stream, ptr %103, i32 0, i32 15
  store ptr null, ptr %104, align 8
  %105 = load ptr, ptr %10, align 8
  %106 = getelementptr inbounds %struct._php_stream, ptr %105, i32 0, i32 20
  store ptr null, ptr %106, align 8
  %107 = load ptr, ptr %10, align 8
  store ptr %107, ptr %5, align 8
  br label %108

108:                                              ; preds = %96, %67
  %109 = load ptr, ptr %5, align 8
  ret ptr %109
}