; Function Attrs: nounwind uwtable
define noundef ptr @_php_stream_alloc(ptr noundef %0, ptr noundef %1, ptr noundef %2, ptr noundef %3) local_unnamed_addr #2 {
  %.not = icmp ne ptr %2, null
  br i1 %.not, label %5, label %7

5:                                                ; preds = %4
  %6 = tail call noalias dereferenceable_or_null(208) ptr @__zend_malloc(i64 noundef 208) #29
  br label %9

7:                                                ; preds = %4
  %8 = tail call noalias ptr @_emalloc_224() #27
  br label %9

9:                                                ; preds = %7, %5
  %10 = phi ptr [ %6, %5 ], [ %8, %7 ]
  %11 = getelementptr inbounds i8, ptr %10, i64 16
  tail call void @llvm.memset.p0.i64(ptr noundef nonnull align 8 dereferenceable(208) %11, i8 0, i64 192, i1 false)
  %12 = getelementptr inbounds i8, ptr %10, i64 32
  store ptr %10, ptr %12, align 8
  %13 = getelementptr inbounds i8, ptr %10, i64 56
  store ptr %10, ptr %13, align 8
  store ptr %0, ptr %10, align 8
  %14 = getelementptr inbounds i8, ptr %10, i64 8
  store ptr %1, ptr %14, align 8
  %15 = zext i1 %.not to i16
  %16 = getelementptr inbounds i8, ptr %10, i64 96
  store i16 %15, ptr %16, align 8
  %17 = load i64, ptr getelementptr inbounds (%struct.php_file_globals, ptr @file_globals, i64 0, i32 1), align 8
  %18 = getelementptr inbounds i8, ptr %10, i64 192
  store i64 %17, ptr %18, align 8
  %19 = load i8, ptr getelementptr inbounds (%struct.php_file_globals, ptr @file_globals, i64 0, i32 2), align 8
  %20 = and i8 %19, 1
  %.not35 = icmp eq i8 %20, 0
  br i1 %.not35, label %23, label %21

21:                                               ; preds = %9
  %22 = getelementptr inbounds i8, ptr %10, i64 116
  store i32 4, ptr %22, align 4
  br label %23

23:                                               ; preds = %21, %9
  br i1 %.not, label %24, label %30

24:                                               ; preds = %23
  %25 = tail call i64 @strlen(ptr noundef nonnull dereferenceable(1) %2) #28
  %26 = load i32, ptr @le_pstream, align 4
  %27 = tail call ptr @zend_register_persistent_resource(ptr noundef nonnull %2, i64 noundef %25, ptr noundef nonnull %10, i32 noundef %26) #27
  %28 = icmp eq ptr %27, null
  br i1 %28, label %29, label %30

29:                                               ; preds = %24
  tail call void @free(ptr noundef nonnull %10) #27
  br label %43

30:                                               ; preds = %24, %23
  %31 = load i32, ptr @le_pstream, align 4
  %32 = load i32, ptr @le_stream, align 4
  %33 = select i1 %.not, i32 %31, i32 %32
  %34 = tail call ptr @zend_register_resource(ptr noundef nonnull %10, i32 noundef %33) #27
  %35 = getelementptr inbounds i8, ptr %10, i64 120
  store ptr %34, ptr %35, align 8
  %36 = getelementptr inbounds i8, ptr %10, i64 98
  %37 = tail call i64 @php_strlcpy(ptr noundef nonnull %36, ptr noundef %3, i64 noundef 16) #27
  %38 = getelementptr inbounds i8, ptr %10, i64 64
  %39 = getelementptr inbounds i8, ptr %10, i64 88
  store i32 0, ptr %39, align 8
  %40 = getelementptr inbounds i8, ptr %10, i64 128
  %41 = getelementptr inbounds i8, ptr %10, i64 160
  store ptr null, ptr %41, align 8
  %42 = getelementptr inbounds i8, ptr %10, i64 200
  store ptr null, ptr %42, align 8
  tail call void @llvm.memset.p0.i64(ptr noundef nonnull align 8 dereferenceable(16) %38, i8 0, i64 16, i1 false)
  tail call void @llvm.memset.p0.i64(ptr noundef nonnull align 8 dereferenceable(24) %40, i8 0, i64 24, i1 false)
  br label %43

43:                                               ; preds = %30, %29
  %.0 = phi ptr [ null, %29 ], [ %10, %30 ]
  ret ptr %.0
}